; ModuleID = 'source-C-CXX/61/2968.c'
source_filename = "source-C-CXX/61/2968.c"
target datalayout = "e-m:e-p270:32:32-p271:32:32-p272:64:64-i64:64-f80:128-n8:16:32:64-S128"
target triple = "x86_64-pc-linux-gnu"

; Function Attrs: nounwind sspstrong uwtable
define dso_local i32 @main() local_unnamed_addr #0 {
  %1 = alloca [380 x i8], align 16
  %2 = getelementptr inbounds [380 x i8], [380 x i8]* %1, i64 0, i64 0
  call void @llvm.lifetime.start.p0i8(i64 380, i8* nonnull %2) #4
  %3 = call i32 (i8*, ...) bitcast (i32 (...)* @gets to i32 (i8*, ...)*)(i8* nonnull %2) #4
  %4 = load i8, i8* %2, align 16, !tbaa !5
  %5 = sext i8 %4 to i32
  %6 = call i32 @putchar(i32 %5)
  %7 = getelementptr inbounds [380 x i8], [380 x i8]* %1, i64 0, i64 1
  %8 = load i8, i8* %7, align 1, !tbaa !5
  %9 = icmp eq i8 %8, 0
  br i1 %9, label %28, label %10

10:                                               ; preds = %0, %22
  %11 = phi i64 [ %23, %22 ], [ 1, %0 ]
  %12 = phi i8 [ %26, %22 ], [ %8, %0 ]
  %13 = add nsw i64 %11, -1
  %14 = getelementptr inbounds [380 x i8], [380 x i8]* %1, i64 0, i64 %13
  %15 = load i8, i8* %14, align 1, !tbaa !5
  %16 = icmp eq i8 %15, 32
  %17 = icmp eq i8 %12, 32
  %18 = select i1 %16, i1 %17, i1 false
  br i1 %18, label %22, label %19

19:                                               ; preds = %10
  %20 = sext i8 %12 to i32
  %21 = call i32 @putchar(i32 %20)
  br label %22

22:                                               ; preds = %10, %19
  %23 = add nuw i64 %11, 1
  %24 = and i64 %23, 4294967295
  %25 = getelementptr inbounds [380 x i8], [380 x i8]* %1, i64 0, i64 %24
  %26 = load i8, i8* %25, align 1, !tbaa !5
  %27 = icmp eq i8 %26, 0
  br i1 %27, label %28, label %10, !llvm.loop !8

28:                                               ; preds = %22, %0
  call void @llvm.lifetime.end.p0i8(i64 380, i8* nonnull %2) #4
  ret i32 0
}

; Function Attrs: argmemonly mustprogress nofree nosync nounwind willreturn
declare void @llvm.lifetime.start.p0i8(i64 immarg, i8* nocapture) #1

declare i32 @gets(...) local_unnamed_addr #2

; Function Attrs: argmemonly mustprogress nofree nosync nounwind willreturn
declare void @llvm.lifetime.end.p0i8(i64 immarg, i8* nocapture) #1

; Function Attrs: nofree nounwind
declare noundef i32 @putchar(i32 noundef) local_unnamed_addr #3


!llvm.module.flags = !{!0, !1, !2, !3}
!llvm.ident = !{!4}

!0 = !{i32 1, !"wchar_size", i32 4}
!1 = !{i32 7, !"PIC Level", i32 2}
!2 = !{i32 7, !"PIE Level", i32 2}
!3 = !{i32 7, !"uwtable", i32 1}
!4 = !{!"clang version 13.0.0"}
!5 = !{!6, !6, i64 0}
!6 = !{!"omnipotent char", !7, i64 0}
!7 = !{!"Simple C/C++ TBAA"}
!8 = distinct !{!8, !9}
!9 = !{!"llvm.loop.mustprogress"}
